target datalayout = "e-m:e-p270:32:32-p271:32:32-p272:64:64-i64:64-i128:128-f80:128-n8:16:32:64-S128"
target triple = "x86_64-pc-linux-gnu"

%struct.lg4ff_device = type { i16, i16, [16 x %struct.lg4ff_effect_state], [4 x %struct.lg4ff_slot], i32, i32, i32, i32, i32, i32, i32, ptr, i8, ptr, [256 x i8], ptr, i8 }
%struct.lg4ff_effect_state = type { %union.SDL_HapticEffect, i64, i64, i64, i32, i64, i64, i32, i32, i32, double, i32, i8 }
%union.SDL_HapticEffect = type { %struct.SDL_HapticCustom, [16 x i8] }
%struct.SDL_HapticCustom = type { i16, %struct.SDL_HapticDirection, i32, i16, i16, i16, i8, i16, i16, ptr, i16, i16, i16, i16 }
%struct.SDL_HapticDirection = type { i8, [3 x i32] }
%struct.lg4ff_slot = type { i32, %struct.lg4ff_effect_parameters, [7 x i8], i32, i8, i32 }
%struct.lg4ff_effect_parameters = type { i32, i32, i32, i32, i32, i32 }
%struct.SDL_HIDAPI_HapticDevice = type { ptr, ptr, ptr, ptr }

@.str.10 = private unnamed_addr constant [14 x i8] c"Bad effect id\00", align 1

; Function Attrs: inlinehint nounwind uwtable
define internal i64 @get_time_ms() #5 {
  %1 = call i64 @SDL_GetTicks_REAL()
  ret i64 %1
}

; Function Attrs: nounwind uwtable
define internal i32 @lg4ff_play_effect(ptr noundef %0, i32 noundef %1, i32 noundef %2) #0 {
  %4 = alloca ptr, align 8
  %5 = alloca i32, align 4
  %6 = alloca i32, align 4
  %7 = alloca ptr, align 8
  %8 = alloca i64, align 8
  store ptr %0, ptr %4, align 8
  store i32 %1, ptr %5, align 4
  store i32 %2, ptr %6, align 4
  call void @llvm.lifetime.start.p0(i64 8, ptr %7) #6
  call void @llvm.lifetime.start.p0(i64 8, ptr %8) #6
  %9 = call i64 @get_time_ms()
  store i64 %9, ptr %8, align 8
  %10 = load ptr, ptr %4, align 8
  %11 = getelementptr inbounds nuw %struct.lg4ff_device, ptr %10, i32 0, i32 2
  %12 = load i32, ptr %5, align 4
  %13 = sext i32 %12 to i64
  %14 = getelementptr inbounds [16 x %struct.lg4ff_effect_state], ptr %11, i64 0, i64 %13
  store ptr %14, ptr %7, align 8
  %15 = load i32, ptr %6, align 4
  %16 = icmp sgt i32 %15, 0
  br i1 %16, label %17, label %44

17:                                               ; preds = %3
  %18 = load ptr, ptr %7, align 8
  %19 = getelementptr inbounds nuw %struct.lg4ff_effect_state, ptr %18, i32 0, i32 4
  %20 = load i32, ptr %19, align 8
  %21 = and i32 %20, 1
  %22 = icmp ne i32 %21, 0
  br i1 %22, label %23, label %26

23:                                               ; preds = %17
  %24 = load ptr, ptr %7, align 8
  %25 = getelementptr inbounds nuw %struct.lg4ff_effect_state, ptr %24, i32 0, i32 4
  store i32 0, ptr %25, align 8
  br label %31

26:                                               ; preds = %17
  %27 = load ptr, ptr %4, align 8
  %28 = getelementptr inbounds nuw %struct.lg4ff_device, ptr %27, i32 0, i32 4
  %29 = load i32, ptr %28, align 8
  %30 = add nsw i32 %29, 1
  store i32 %30, ptr %28, align 8
  br label %31

31:                                               ; preds = %26, %23
  %32 = load ptr, ptr %7, align 8
  %33 = getelementptr inbounds nuw %struct.lg4ff_effect_state, ptr %32, i32 0, i32 4
  %34 = load i32, ptr %33, align 8
  %35 = or i32 %34, 1
  %36 = load ptr, ptr %7, align 8
  %37 = getelementptr inbounds nuw %struct.lg4ff_effect_state, ptr %36, i32 0, i32 4
  store i32 %35, ptr %37, align 8
  %38 = load i64, ptr %8, align 8
  %39 = load ptr, ptr %7, align 8
  %40 = getelementptr inbounds nuw %struct.lg4ff_effect_state, ptr %39, i32 0, i32 1
  store i64 %38, ptr %40, align 8
  %41 = load i32, ptr %6, align 4
  %42 = load ptr, ptr %7, align 8
  %43 = getelementptr inbounds nuw %struct.lg4ff_effect_state, ptr %42, i32 0, i32 9
  store i32 %41, ptr %43, align 8
  br label %58

44:                                               ; preds = %3
  %45 = load ptr, ptr %7, align 8
  %46 = getelementptr inbounds nuw %struct.lg4ff_effect_state, ptr %45, i32 0, i32 4
  %47 = load i32, ptr %46, align 8
  %48 = and i32 %47, 1
  %49 = icmp ne i32 %48, 0
  br i1 %49, label %50, label %57

50:                                               ; preds = %44
  %51 = load ptr, ptr %7, align 8
  %52 = getelementptr inbounds nuw %struct.lg4ff_effect_state, ptr %51, i32 0, i32 4
  store i32 0, ptr %52, align 8
  %53 = load ptr, ptr %4, align 8
  %54 = getelementptr inbounds nuw %struct.lg4ff_device, ptr %53, i32 0, i32 4
  %55 = load i32, ptr %54, align 8
  %56 = add nsw i32 %55, -1
  store i32 %56, ptr %54, align 8
  br label %57

57:                                               ; preds = %50, %44
  br label %58

58:                                               ; preds = %57, %31
  call void @llvm.lifetime.end.p0(i64 8, ptr %8) #6
  call void @llvm.lifetime.end.p0(i64 8, ptr %7) #6
  ret i32 0
}

; Function Attrs: nounwind uwtable
define internal zeroext i1 @lg4ff_effect_slot_valid_active(ptr noundef %0, i32 noundef %1) #0 {
  %3 = alloca i1, align 1
  %4 = alloca ptr, align 8
  %5 = alloca i32, align 4
  store ptr %0, ptr %4, align 8
  store i32 %1, ptr %5, align 4
  %6 = load i32, ptr %5, align 4
  %7 = icmp sge i32 %6, 16
  br i1 %7, label %11, label %8

8:                                                ; preds = %2
  %9 = load i32, ptr %5, align 4
  %10 = icmp slt i32 %9, 0
  br i1 %10, label %11, label %12

11:                                               ; preds = %8, %2
  store i1 false, ptr %3, align 1
  br label %23

12:                                               ; preds = %8
  %13 = load ptr, ptr %4, align 8
  %14 = getelementptr inbounds nuw %struct.lg4ff_device, ptr %13, i32 0, i32 2
  %15 = load i32, ptr %5, align 4
  %16 = sext i32 %15 to i64
  %17 = getelementptr inbounds [16 x %struct.lg4ff_effect_state], ptr %14, i64 0, i64 %16
  %18 = getelementptr inbounds nuw %struct.lg4ff_effect_state, ptr %17, i32 0, i32 12
  %19 = load i8, ptr %18, align 4, !range !5, !noundef !6
  %20 = trunc i8 %19 to i1
  br i1 %20, label %22, label %21

21:                                               ; preds = %12
  store i1 false, ptr %3, align 1
  br label %23

22:                                               ; preds = %12
  store i1 true, ptr %3, align 1
  br label %23

23:                                               ; preds = %22, %21, %11
  %24 = load i1, ptr %3, align 1
  ret i1 %24
}

; Function Attrs: nounwind uwtable
define internal zeroext i1 @SDL_HIDAPI_HapticDriverLg4ff_RunEffect(ptr noundef %0, i32 noundef %1, i32 noundef %2) #0 {
  %4 = alloca i1, align 1
  %5 = alloca ptr, align 8
  %6 = alloca i32, align 4
  %7 = alloca i32, align 4
  %8 = alloca ptr, align 8
  %9 = alloca i32, align 4
  %10 = alloca i32, align 4
  store ptr %0, ptr %5, align 8
  store i32 %1, ptr %6, align 4
  store i32 %2, ptr %7, align 4
  call void @llvm.lifetime.start.p0(i64 8, ptr %8) #6
  %11 = load ptr, ptr %5, align 8
  %12 = getelementptr inbounds nuw %struct.SDL_HIDAPI_HapticDevice, ptr %11, i32 0, i32 3
  %13 = load ptr, ptr %12, align 8
  store ptr %13, ptr %8, align 8
  call void @llvm.lifetime.start.p0(i64 4, ptr %9) #6
  %14 = load ptr, ptr %8, align 8
  %15 = getelementptr inbounds nuw %struct.lg4ff_device, ptr %14, i32 0, i32 15
  %16 = load ptr, ptr %15, align 8
  call void @SDL_LockMutex_REAL(ptr noundef %16)
  %17 = load ptr, ptr %8, align 8
  %18 = load i32, ptr %6, align 4
  %19 = call zeroext i1 @lg4ff_effect_slot_valid_active(ptr noundef %17, i32 noundef %18)
  br i1 %19, label %25, label %20

20:                                               ; preds = %3
  %21 = load ptr, ptr %8, align 8
  %22 = getelementptr inbounds nuw %struct.lg4ff_device, ptr %21, i32 0, i32 15
  %23 = load ptr, ptr %22, align 8
  call void @SDL_UnlockMutex_REAL(ptr noundef %23)
  %24 = call zeroext i1 (ptr, ...) @SDL_SetError_REAL(ptr noundef @.str.10)
  store i1 false, ptr %4, align 1
  store i32 1, ptr %10, align 4
  br label %35

25:                                               ; preds = %3
  %26 = load ptr, ptr %8, align 8
  %27 = load i32, ptr %6, align 4
  %28 = load i32, ptr %7, align 4
  %29 = call i32 @lg4ff_play_effect(ptr noundef %26, i32 noundef %27, i32 noundef %28)
  store i32 %29, ptr %9, align 4
  %30 = load ptr, ptr %8, align 8
  %31 = getelementptr inbounds nuw %struct.lg4ff_device, ptr %30, i32 0, i32 15
  %32 = load ptr, ptr %31, align 8
  call void @SDL_UnlockMutex_REAL(ptr noundef %32)
  %33 = load i32, ptr %9, align 4
  %34 = icmp eq i32 %33, 0
  store i1 %34, ptr %4, align 1
  store i32 1, ptr %10, align 4
  br label %35

35:                                               ; preds = %25, %20
  call void @llvm.lifetime.end.p0(i64 4, ptr %9) #6
  call void @llvm.lifetime.end.p0(i64 8, ptr %8) #6
  %36 = load i1, ptr %4, align 1
  ret i1 %36
}

; Function Attrs: nounwind uwtable
define internal zeroext i1 @SDL_HIDAPI_HapticDriverLg4ff_StopEffect(ptr noundef %0, i32 noundef %1) #0 {
  %3 = alloca ptr, align 8
  %4 = alloca i32, align 4
  store ptr %0, ptr %3, align 8
  store i32 %1, ptr %4, align 4
  %5 = load ptr, ptr %3, align 8
  %6 = load i32, ptr %4, align 4
  %7 = call zeroext i1 @SDL_HIDAPI_HapticDriverLg4ff_RunEffect(ptr noundef %5, i32 noundef %6, i32 noundef 0)
  ret i1 %7
}