; Function Attrs: nounwind uwtable
define internal noundef zeroext i1 @SDL_HIDAPI_HapticDriverLg4ff_StopEffect(ptr noundef readonly captures(none) %0, i32 noundef %1) #0 {
  %3 = getelementptr inbounds nuw i8, ptr %0, i64 24
  %4 = load ptr, ptr %3, align 8
  %5 = getelementptr inbounds nuw i8, ptr %4, i64 2944
  %6 = load ptr, ptr %5, align 8
  tail call void @SDL_LockMutex_REAL(ptr noundef %6) #8
  %or.cond.i.i = icmp ugt i32 %1, 15
  br i1 %or.cond.i.i, label %lg4ff_effect_slot_valid_active.exit.thread.i, label %lg4ff_effect_slot_valid_active.exit.i

lg4ff_effect_slot_valid_active.exit.i:            ; preds = %2
  %7 = getelementptr inbounds nuw i8, ptr %4, i64 8
  %narrow.i.i = mul nuw nsw i32 %1, 152
  %8 = zext nneg i32 %narrow.i.i to i64
  %9 = getelementptr inbounds nuw i8, ptr %7, i64 %8
  %10 = getelementptr inbounds nuw i8, ptr %9, i64 148
  %11 = load i8, ptr %10, align 4, !range !7, !noundef !8
  %12 = trunc nuw i8 %11 to i1
  br i1 %12, label %15, label %lg4ff_effect_slot_valid_active.exit.thread.i

lg4ff_effect_slot_valid_active.exit.thread.i:     ; preds = %lg4ff_effect_slot_valid_active.exit.i, %2
  %13 = load ptr, ptr %5, align 8
  tail call void @SDL_UnlockMutex_REAL(ptr noundef %13) #8
  %14 = tail call zeroext i1 (ptr, ...) @SDL_SetError_REAL(ptr noundef nonnull @.str.10) #8
  br label %SDL_HIDAPI_HapticDriverLg4ff_RunEffect.exit

15:                                               ; preds = %lg4ff_effect_slot_valid_active.exit.i
  %16 = tail call i64 @SDL_GetTicks_REAL() #8
  %17 = getelementptr inbounds nuw i8, ptr %9, i64 96
  %18 = load i32, ptr %17, align 8
  %19 = and i32 %18, 1
  %.not14.i.i = icmp eq i32 %19, 0
  br i1 %.not14.i.i, label %lg4ff_play_effect.exit.i, label %20

20:                                               ; preds = %15
  store i32 0, ptr %17, align 8
  %21 = getelementptr inbounds nuw i8, ptr %4, i64 2632
  %22 = load i32, ptr %21, align 8
  %23 = add nsw i32 %22, -1
  store i32 %23, ptr %21, align 8
  br label %lg4ff_play_effect.exit.i

lg4ff_play_effect.exit.i:                         ; preds = %20, %15
  %24 = load ptr, ptr %5, align 8
  tail call void @SDL_UnlockMutex_REAL(ptr noundef %24) #8
  br label %SDL_HIDAPI_HapticDriverLg4ff_RunEffect.exit

SDL_HIDAPI_HapticDriverLg4ff_RunEffect.exit:      ; preds = %lg4ff_effect_slot_valid_active.exit.thread.i, %lg4ff_play_effect.exit.i
  %.0.i11.i = phi i1 [ true, %lg4ff_play_effect.exit.i ], [ false, %lg4ff_effect_slot_valid_active.exit.thread.i ]
  ret i1 %.0.i11.i
}